target datalayout = "e-m:e-p270:32:32-p271:32:32-p272:64:64-i64:64-i128:128-f80:128-n8:16:32:64-S128"
target triple = "x86_64-pc-linux-gnu"

%struct.ref_format = type { ptr, ptr, i32, i32, i32, %struct.anon.0 }
%struct.anon.0 = type { i32, i32 }

; Function Attrs: nounwind uwtable
define internal i32 @verify_tag(ptr noundef %0, ptr noundef %1, ptr noundef %2, ptr noundef %3) #0 {
  %5 = alloca i32, align 4
  %6 = alloca ptr, align 8
  %7 = alloca ptr, align 8
  %8 = alloca ptr, align 8
  %9 = alloca ptr, align 8
  %10 = alloca i32, align 4
  %11 = alloca ptr, align 8
  %12 = alloca i32, align 4
  store ptr %0, ptr %6, align 8, !tbaa !11
  store ptr %1, ptr %7, align 8, !tbaa !11
  store ptr %2, ptr %8, align 8, !tbaa !101
  store ptr %3, ptr %9, align 8, !tbaa !88
  call void @llvm.lifetime.start.p0(i64 4, ptr %10) #11
  call void @llvm.lifetime.start.p0(i64 8, ptr %11) #11
  %13 = load ptr, ptr %9, align 8, !tbaa !88
  store ptr %13, ptr %11, align 8, !tbaa !94
  store i32 1, ptr %10, align 4, !tbaa !4
  %14 = load ptr, ptr %11, align 8, !tbaa !94
  %15 = getelementptr inbounds nuw %struct.ref_format, ptr %14, i32 0, i32 0
  %16 = load ptr, ptr %15, align 8, !tbaa !56
  %17 = icmp ne ptr %16, null
  br i1 %17, label %18, label %19

18:                                               ; preds = %4
  store i32 4, ptr %10, align 4, !tbaa !4
  br label %19

19:                                               ; preds = %18, %4
  %20 = load ptr, ptr %8, align 8, !tbaa !101
  %21 = load ptr, ptr %6, align 8, !tbaa !11
  %22 = load i32, ptr %10, align 4, !tbaa !4
  %23 = call i32 @gpg_verify_tag(ptr noundef %20, ptr noundef %21, i32 noundef %22)
  %24 = icmp ne i32 %23, 0
  br i1 %24, label %25, label %26

25:                                               ; preds = %19
  store i32 -1, ptr %5, align 4
  store i32 1, ptr %12, align 4
  br label %36

26:                                               ; preds = %19
  %27 = load ptr, ptr %11, align 8, !tbaa !94
  %28 = getelementptr inbounds nuw %struct.ref_format, ptr %27, i32 0, i32 0
  %29 = load ptr, ptr %28, align 8, !tbaa !56
  %30 = icmp ne ptr %29, null
  br i1 %30, label %31, label %35

31:                                               ; preds = %26
  %32 = load ptr, ptr %6, align 8, !tbaa !11
  %33 = load ptr, ptr %8, align 8, !tbaa !101
  %34 = load ptr, ptr %11, align 8, !tbaa !94
  call void @pretty_print_ref(ptr noundef %32, ptr noundef %33, ptr noundef %34)
  br label %35

35:                                               ; preds = %31, %26
  store i32 0, ptr %5, align 4
  store i32 1, ptr %12, align 4
  br label %36

36:                                               ; preds = %35, %25
  call void @llvm.lifetime.end.p0(i64 8, ptr %11) #11
  call void @llvm.lifetime.end.p0(i64 4, ptr %10) #11
  %37 = load i32, ptr %5, align 4
  ret i32 %37
}