; Function Attrs: nounwind uwtable
define internal range(i32 -1, 1) i32 @verify_tag(ptr noundef %0, ptr readnone captures(none) %1, ptr noundef %2, ptr noundef %3) #0 {
  %5 = load ptr, ptr %3, align 8, !tbaa !43
  %.not = icmp eq ptr %5, null
  %spec.store.select = select i1 %.not, i32 1, i32 4
  %6 = tail call i32 @gpg_verify_tag(ptr noundef %2, ptr noundef %0, i32 noundef %spec.store.select) #15
  %.not9 = icmp eq i32 %6, 0
  br i1 %.not9, label %7, label %10

7:                                                ; preds = %4
  %8 = load ptr, ptr %3, align 8, !tbaa !43
  %.not10 = icmp eq ptr %8, null
  br i1 %.not10, label %10, label %9

9:                                                ; preds = %7
  tail call void @pretty_print_ref(ptr noundef %0, ptr noundef %2, ptr noundef nonnull %3) #15
  br label %10

10:                                               ; preds = %7, %9, %4
  %.0 = phi i32 [ -1, %4 ], [ 0, %9 ], [ 0, %7 ]
  ret i32 %.0
}